target datalayout = "e-m:e-p270:32:32-p271:32:32-p272:64:64-i64:64-i128:128-f80:128-n8:16:32:64-S128"
target triple = "x86_64-pc-linux-gnu"

@.str.16 = private unnamed_addr constant [2 x i8] c"n\00", align 1

; Function Attrs: nounwind uwtable
define internal i32 @tpack(ptr noundef %0) #0 {
  %2 = alloca ptr, align 8
  %3 = alloca i32, align 4
  %4 = alloca i32, align 4
  store ptr %0, ptr %2, align 8, !tbaa !4
  call void @llvm.lifetime.start.p0(i64 4, ptr %3) #4
  call void @llvm.lifetime.start.p0(i64 4, ptr %4) #4
  %5 = load ptr, ptr %2, align 8, !tbaa !4
  %6 = call i32 @lua_gettop(ptr noundef %5)
  store i32 %6, ptr %4, align 4, !tbaa !15
  %7 = load ptr, ptr %2, align 8, !tbaa !4
  %8 = load i32, ptr %4, align 4, !tbaa !15
  call void @lua_createtable(ptr noundef %7, i32 noundef %8, i32 noundef 1)
  %9 = load ptr, ptr %2, align 8, !tbaa !4
  call void @lua_rotate(ptr noundef %9, i32 noundef 1, i32 noundef 1)
  %10 = load i32, ptr %4, align 4, !tbaa !15
  store i32 %10, ptr %3, align 4, !tbaa !15
  br label %11

11:                                               ; preds = %18, %1
  %12 = load i32, ptr %3, align 4, !tbaa !15
  %13 = icmp sge i32 %12, 1
  br i1 %13, label %14, label %21

14:                                               ; preds = %11
  %15 = load ptr, ptr %2, align 8, !tbaa !4
  %16 = load i32, ptr %3, align 4, !tbaa !15
  %17 = sext i32 %16 to i64
  call void @lua_seti(ptr noundef %15, i32 noundef 1, i64 noundef %17)
  br label %18

18:                                               ; preds = %14
  %19 = load i32, ptr %3, align 4, !tbaa !15
  %20 = add nsw i32 %19, -1
  store i32 %20, ptr %3, align 4, !tbaa !15
  br label %11

21:                                               ; preds = %11
  %22 = load ptr, ptr %2, align 8, !tbaa !4
  %23 = load i32, ptr %4, align 4, !tbaa !15
  %24 = sext i32 %23 to i64
  call void @lua_pushinteger(ptr noundef %22, i64 noundef %24)
  %25 = load ptr, ptr %2, align 8, !tbaa !4
  call void @lua_setfield(ptr noundef %25, i32 noundef 1, ptr noundef @.str.16)
  call void @llvm.lifetime.end.p0(i64 4, ptr %4) #4
  call void @llvm.lifetime.end.p0(i64 4, ptr %3) #4
  ret i32 1
}