; Function Attrs: nounwind uwtable
define internal noundef i32 @tpack(ptr noundef %0) #0 {
  %2 = tail call i32 @lua_gettop(ptr noundef %0) #3
  tail call void @lua_createtable(ptr noundef %0, i32 noundef %2, i32 noundef 1) #3
  tail call void @lua_rotate(ptr noundef %0, i32 noundef 1, i32 noundef 1) #3
  %3 = icmp sgt i32 %2, 0
  br i1 %3, label %.lr.ph.preheader, label %._crit_edge

.lr.ph.preheader:                                 ; preds = %1
  %4 = zext nneg i32 %2 to i64
  br label %.lr.ph

.lr.ph:                                           ; preds = %.lr.ph.preheader, %.lr.ph
  %indvars.iv = phi i64 [ %4, %.lr.ph.preheader ], [ %indvars.iv.next, %.lr.ph ]
  tail call void @lua_seti(ptr noundef %0, i32 noundef 1, i64 noundef %indvars.iv) #3
  %indvars.iv.next = add nsw i64 %indvars.iv, -1
  %5 = icmp samesign ugt i64 %indvars.iv, 1
  br i1 %5, label %.lr.ph, label %._crit_edge

._crit_edge:                                      ; preds = %.lr.ph, %1
  %6 = sext i32 %2 to i64
  tail call void @lua_pushinteger(ptr noundef %0, i64 noundef %6) #3
  tail call void @lua_setfield(ptr noundef %0, i32 noundef 1, ptr noundef nonnull @.str.16) #3
  ret i32 1
}